target datalayout = "e-m:e-p270:32:32-p271:32:32-p272:64:64-i64:64-i128:128-f80:128-n8:16:32:64-S128"
target triple = "x86_64-pc-linux-gnu"

%struct.dt_datetime_t = type { i32, i32, i32, i32, i32, i32, i32 }

; Function Attrs: nounwind uwtable
define i32 @_datetime_gdatetime_to_numbers(ptr noundef %0, ptr noundef %1) #0 {
  %3 = alloca i32, align 4
  %4 = alloca ptr, align 8
  %5 = alloca ptr, align 8
  store ptr %0, ptr %4, align 8, !tbaa !49
  store ptr %1, ptr %5, align 8, !tbaa !51
  %6 = load ptr, ptr %5, align 8, !tbaa !51
  %7 = icmp ne ptr %6, null
  br i1 %7, label %8, label %40

8:                                                ; preds = %2
  %9 = load ptr, ptr %5, align 8, !tbaa !51
  %10 = call i32 @g_date_time_get_year(ptr noundef %9)
  %11 = load ptr, ptr %4, align 8, !tbaa !49
  %12 = getelementptr inbounds nuw %struct.dt_datetime_t, ptr %11, i32 0, i32 0
  store i32 %10, ptr %12, align 4, !tbaa !52
  %13 = load ptr, ptr %5, align 8, !tbaa !51
  %14 = call i32 @g_date_time_get_month(ptr noundef %13)
  %15 = load ptr, ptr %4, align 8, !tbaa !49
  %16 = getelementptr inbounds nuw %struct.dt_datetime_t, ptr %15, i32 0, i32 1
  store i32 %14, ptr %16, align 4, !tbaa !54
  %17 = load ptr, ptr %5, align 8, !tbaa !51
  %18 = call i32 @g_date_time_get_day_of_month(ptr noundef %17)
  %19 = load ptr, ptr %4, align 8, !tbaa !49
  %20 = getelementptr inbounds nuw %struct.dt_datetime_t, ptr %19, i32 0, i32 2
  store i32 %18, ptr %20, align 4, !tbaa !55
  %21 = load ptr, ptr %5, align 8, !tbaa !51
  %22 = call i32 @g_date_time_get_hour(ptr noundef %21)
  %23 = load ptr, ptr %4, align 8, !tbaa !49
  %24 = getelementptr inbounds nuw %struct.dt_datetime_t, ptr %23, i32 0, i32 3
  store i32 %22, ptr %24, align 4, !tbaa !56
  %25 = load ptr, ptr %5, align 8, !tbaa !51
  %26 = call i32 @g_date_time_get_minute(ptr noundef %25)
  %27 = load ptr, ptr %4, align 8, !tbaa !49
  %28 = getelementptr inbounds nuw %struct.dt_datetime_t, ptr %27, i32 0, i32 4
  store i32 %26, ptr %28, align 4, !tbaa !57
  %29 = load ptr, ptr %5, align 8, !tbaa !51
  %30 = call i32 @g_date_time_get_second(ptr noundef %29)
  %31 = load ptr, ptr %4, align 8, !tbaa !49
  %32 = getelementptr inbounds nuw %struct.dt_datetime_t, ptr %31, i32 0, i32 5
  store i32 %30, ptr %32, align 4, !tbaa !58
  %33 = load ptr, ptr %5, align 8, !tbaa !51
  %34 = call i32 @g_date_time_get_microsecond(ptr noundef %33)
  %35 = sitofp i32 %34 to double
  %36 = fmul reassoc nsz arcp contract afn double %35, 1.000000e-03
  %37 = fptosi double %36 to i32
  %38 = load ptr, ptr %4, align 8, !tbaa !49
  %39 = getelementptr inbounds nuw %struct.dt_datetime_t, ptr %38, i32 0, i32 6
  store i32 %37, ptr %39, align 4, !tbaa !59
  store i32 1, ptr %3, align 4
  br label %41

40:                                               ; preds = %2
  store i32 0, ptr %3, align 4
  br label %41

41:                                               ; preds = %40, %8
  %42 = load i32, ptr %3, align 4
  ret i32 %42
}