; Function Attrs: nounwind uwtable
define range(i32 0, 2) i32 @_datetime_gdatetime_to_numbers(ptr noundef writeonly captures(none) %0, ptr noundef %1) local_unnamed_addr #0 {
  %.not = icmp eq ptr %1, null
  br i1 %.not, label %20, label %3

3:                                                ; preds = %2
  %4 = tail call i32 @g_date_time_get_year(ptr noundef nonnull %1) #7
  store i32 %4, ptr %0, align 4, !tbaa !49
  %5 = tail call i32 @g_date_time_get_month(ptr noundef nonnull %1) #7
  %6 = getelementptr inbounds nuw i8, ptr %0, i64 4
  store i32 %5, ptr %6, align 4, !tbaa !51
  %7 = tail call i32 @g_date_time_get_day_of_month(ptr noundef nonnull %1) #7
  %8 = getelementptr inbounds nuw i8, ptr %0, i64 8
  store i32 %7, ptr %8, align 4, !tbaa !52
  %9 = tail call i32 @g_date_time_get_hour(ptr noundef nonnull %1) #7
  %10 = getelementptr inbounds nuw i8, ptr %0, i64 12
  store i32 %9, ptr %10, align 4, !tbaa !53
  %11 = tail call i32 @g_date_time_get_minute(ptr noundef nonnull %1) #7
  %12 = getelementptr inbounds nuw i8, ptr %0, i64 16
  store i32 %11, ptr %12, align 4, !tbaa !54
  %13 = tail call i32 @g_date_time_get_second(ptr noundef nonnull %1) #7
  %14 = getelementptr inbounds nuw i8, ptr %0, i64 20
  store i32 %13, ptr %14, align 4, !tbaa !55
  %15 = tail call i32 @g_date_time_get_microsecond(ptr noundef nonnull %1) #7
  %16 = sitofp i32 %15 to double
  %17 = fmul reassoc nsz arcp contract afn double %16, 1.000000e-03
  %18 = fptosi double %17 to i32
  %19 = getelementptr inbounds nuw i8, ptr %0, i64 24
  store i32 %18, ptr %19, align 4, !tbaa !56
  br label %20

20:                                               ; preds = %2, %3
  %.0 = phi i32 [ 1, %3 ], [ 0, %2 ]
  ret i32 %.0
}